; Function Attrs: mustprogress nounwind uwtable
define hidden void @_ZN12G1HeapRegion22fill_with_dummy_objectEPP12HeapWordImplmb(ptr noundef nonnull align 8 dereferenceable(136) %0, ptr noundef %1, i64 noundef %2, i1 noundef zeroext %3) local_unnamed_addr #1 align 2 {
  %5 = getelementptr inbounds i8, ptr %0, i64 52
  %6 = load volatile i32, ptr %5, align 4
  %7 = and i32 %6, 8
  %.not = icmp eq i32 %7, 0
  br i1 %.not, label %_ZN12G1HeapRegion20update_bot_for_blockEPP12HeapWordImplS2_.exit, label %8

8:                                                ; preds = %4
  %9 = getelementptr inbounds ptr, ptr %1, i64 %2
  %10 = load i32, ptr @_ZN9CardTable10_card_sizeE, align 4
  %11 = ptrtoint ptr %1 to i64
  %12 = add i32 %10, -1
  %13 = zext i32 %12 to i64
  %14 = add i64 %13, %11
  %15 = xor i64 %13, -1
  %16 = and i64 %14, %15
  %17 = inttoptr i64 %16 to ptr
  %18 = icmp ugt ptr %9, %17
  br i1 %18, label %19, label %_ZN12G1HeapRegion20update_bot_for_blockEPP12HeapWordImplS2_.exit

19:                                               ; preds = %8
  %20 = getelementptr inbounds i8, ptr %0, i64 24
  %21 = load ptr, ptr %20, align 8
  tail call void @_ZN18G1BlockOffsetTable21update_for_block_workEPP12HeapWordImplS2_(ptr noundef nonnull align 8 dereferenceable(24) %21, ptr noundef %1, ptr noundef nonnull %9) #16
  br label %_ZN12G1HeapRegion20update_bot_for_blockEPP12HeapWordImplS2_.exit

_ZN12G1HeapRegion20update_bot_for_blockEPP12HeapWordImplS2_.exit: ; preds = %19, %8, %4
  tail call void @_ZN13CollectedHeap16fill_with_objectEPP12HeapWordImplmb(ptr noundef %1, i64 noundef %2, i1 noundef zeroext %3) #16
  ret void
}